target datalayout = "e-m:e-p270:32:32-p271:32:32-p272:64:64-i64:64-i128:128-f80:128-n8:16:32:64-S128"
target triple = "x86_64-unknown-linux-gnu"

%"class.nla::emonics" = type { %class.trail_stack, %class.union_find, %class.svector, ptr, %class.vector.1, %class.svector, i32, %class.svector.2, %"struct.nla::emonics::hash_canonical", %"struct.nla::emonics::eq_canonical", %class.map }
%class.trail_stack = type { %class.ptr_vector, %class.svector, %class.region }
%class.ptr_vector = type { %class.vector }
%class.vector = type { ptr }
%class.region = type { ptr, ptr, ptr, ptr, ptr }
%class.union_find = type { ptr, ptr, %class.svector, %class.svector, %class.svector, %"class.union_find<nla::emonics>::mk_var_trail" }
%"class.union_find<nla::emonics>::mk_var_trail" = type { %class.trail, ptr }
%class.trail = type { ptr }
%class.vector.1 = type { ptr }
%class.svector = type { %class.vector.0 }
%class.vector.0 = type { ptr }
%class.svector.2 = type { %class.vector.3 }
%class.vector.3 = type { ptr }
%"struct.nla::emonics::hash_canonical" = type { ptr }
%"struct.nla::emonics::eq_canonical" = type { ptr }
%class.map = type { %class.table2map }
%class.table2map = type { %class.core_hashtable }
%class.core_hashtable = type <{ %"struct.table2map<default_map_entry<unsigned int, svector<unsigned int>>, nla::emonics::hash_canonical, nla::emonics::eq_canonical>::entry_hash_proc", %"struct.table2map<default_map_entry<unsigned int, svector<unsigned int>>, nla::emonics::hash_canonical, nla::emonics::eq_canonical>::entry_eq_proc", ptr, i32, i32, i32, [4 x i8] }>
%"struct.table2map<default_map_entry<unsigned int, svector<unsigned int>>, nla::emonics::hash_canonical, nla::emonics::eq_canonical>::entry_hash_proc" = type { %"struct.nla::emonics::hash_canonical" }
%"struct.table2map<default_map_entry<unsigned int, svector<unsigned int>>, nla::emonics::hash_canonical, nla::emonics::eq_canonical>::entry_eq_proc" = type { %"struct.nla::emonics::eq_canonical" }
%"struct.nla::emonics::head_tail" = type { ptr, ptr }
%"struct.nla::emonics::cell" = type <{ ptr, i32, [4 x i8] }>
%class.anon = type { ptr }

; Function Attrs: mustprogress nounwind uwtable
define linkonce_odr hidden noundef nonnull align 8 dereferenceable(16) ptr @_ZN6vectorIN3nla7emonics9head_tailELb0EjEixEj(ptr noundef nonnull align 8 dereferenceable(8) %this, i32 noundef %idx) #4 comdat align 2 {
entry:
  %this.addr = alloca ptr, align 8
  %idx.addr = alloca i32, align 4
  store ptr %this, ptr %this.addr, align 8
  store i32 %idx, ptr %idx.addr, align 4
  %this1 = load ptr, ptr %this.addr, align 8
  %m_data = getelementptr inbounds %class.vector.3, ptr %this1, i32 0, i32 0
  %0 = load ptr, ptr %m_data, align 8
  %1 = load i32, ptr %idx.addr, align 4
  %idxprom = zext i32 %1 to i64
  %arrayidx = getelementptr inbounds %"struct.nla::emonics::head_tail", ptr %0, i64 %idxprom
  ret ptr %arrayidx
}

; Function Attrs: mustprogress nounwind uwtable
define internal noundef zeroext i1 @"_ZZNK3nla7emonics9invariantEvENK3$_0clEjj"(ptr noundef nonnull align 8 dereferenceable(8) %this, i32 noundef %v, i32 noundef %idx) #4 align 2 {
entry:
  %retval = alloca i1, align 1
  %this.addr = alloca ptr, align 8
  %v.addr = alloca i32, align 4
  %idx.addr = alloca i32, align 4
  %c = alloca ptr, align 8
  %c0 = alloca ptr, align 8
  %found = alloca i8, align 1
  store ptr %this, ptr %this.addr, align 8
  store i32 %v, ptr %v.addr, align 4
  store i32 %idx, ptr %idx.addr, align 4
  %this1 = load ptr, ptr %this.addr, align 8
  %0 = getelementptr inbounds %class.anon, ptr %this1, i32 0, i32 0
  %1 = load ptr, ptr %0, align 8
  %m_use_lists = getelementptr inbounds %"class.nla::emonics", ptr %1, i32 0, i32 7
  %2 = load i32, ptr %v.addr, align 4
  %call = call noundef nonnull align 8 dereferenceable(16) ptr @_ZN6vectorIN3nla7emonics9head_tailELb0EjEixEj(ptr noundef nonnull align 8 dereferenceable(8) %m_use_lists, i32 noundef %2)
  %m_head = getelementptr inbounds %"struct.nla::emonics::head_tail", ptr %call, i32 0, i32 0
  %3 = load ptr, ptr %m_head, align 8
  store ptr %3, ptr %c, align 8
  %4 = load ptr, ptr %c, align 8
  store ptr %4, ptr %c0, align 8
  %5 = load ptr, ptr %c, align 8
  %tobool = icmp ne ptr %5, null
  br i1 %tobool, label %if.end, label %if.then

if.then:                                          ; preds = %entry
  store i1 false, ptr %retval, align 1
  br label %return

if.end:                                           ; preds = %entry
  store i8 0, ptr %found, align 1
  br label %do.body

do.body:                                          ; preds = %land.end, %if.end
  %6 = load ptr, ptr %c, align 8
  %m_index = getelementptr inbounds %"struct.nla::emonics::cell", ptr %6, i32 0, i32 1
  %7 = load i32, ptr %m_index, align 8
  %8 = load i32, ptr %idx.addr, align 4
  %cmp = icmp eq i32 %7, %8
  %conv = zext i1 %cmp to i32
  %9 = load i8, ptr %found, align 1
  %tobool2 = trunc i8 %9 to i1
  %conv3 = zext i1 %tobool2 to i32
  %or = or i32 %conv3, %conv
  %tobool4 = icmp ne i32 %or, 0
  %frombool = zext i1 %tobool4 to i8
  store i8 %frombool, ptr %found, align 1
  %10 = load ptr, ptr %c, align 8
  %m_next = getelementptr inbounds %"struct.nla::emonics::cell", ptr %10, i32 0, i32 0
  %11 = load ptr, ptr %m_next, align 8
  store ptr %11, ptr %c, align 8
  br label %do.cond

do.cond:                                          ; preds = %do.body
  %12 = load ptr, ptr %c, align 8
  %13 = load ptr, ptr %c0, align 8
  %cmp5 = icmp ne ptr %12, %13
  br i1 %cmp5, label %land.rhs, label %land.end

land.rhs:                                         ; preds = %do.cond
  %14 = load i8, ptr %found, align 1
  %tobool6 = trunc i8 %14 to i1
  %lnot = xor i1 %tobool6, true
  br label %land.end

land.end:                                         ; preds = %land.rhs, %do.cond
  %15 = phi i1 [ false, %do.cond ], [ %lnot, %land.rhs ]
  br i1 %15, label %do.body, label %do.end, !llvm.loop !71

do.end:                                           ; preds = %land.end
  %16 = load i8, ptr %found, align 1
  %tobool7 = trunc i8 %16 to i1
  store i1 %tobool7, ptr %retval, align 1
  br label %return

return:                                           ; preds = %do.end, %if.then
  %17 = load i1, ptr %retval, align 1
  ret i1 %17
}

; Function Attrs: mustprogress nounwind uwtable
define linkonce_odr hidden noundef ptr @_ZNKSt9_Any_data9_M_accessEv(ptr noundef nonnull align 8 dereferenceable(16) %this) #4 comdat align 2 {
entry:
  %this.addr = alloca ptr, align 8
  store ptr %this, ptr %this.addr, align 8
  %this1 = load ptr, ptr %this.addr, align 8
  %arrayidx = getelementptr inbounds [16 x i8], ptr %this1, i64 0, i64 0
  ret ptr %arrayidx
}

; Function Attrs: mustprogress uwtable
define internal noundef zeroext i1 @"_ZSt13__invoke_implIbRZNK3nla7emonics9invariantEvE3$_0JjjEET_St14__invoke_otherOT0_DpOT1_"(ptr noundef nonnull align 8 dereferenceable(8) %__f, ptr noundef nonnull align 4 dereferenceable(4) %__args, ptr noundef nonnull align 4 dereferenceable(4) %__args1) #5 {
entry:
  %__f.addr = alloca ptr, align 8
  %__args.addr = alloca ptr, align 8
  %__args.addr2 = alloca ptr, align 8
  store ptr %__f, ptr %__f.addr, align 8
  store ptr %__args, ptr %__args.addr, align 8
  store ptr %__args1, ptr %__args.addr2, align 8
  %0 = load ptr, ptr %__f.addr, align 8
  %1 = load ptr, ptr %__args.addr, align 8
  %2 = load i32, ptr %1, align 4
  %3 = load ptr, ptr %__args.addr2, align 8
  %4 = load i32, ptr %3, align 4
  %call = call noundef zeroext i1 @"_ZZNK3nla7emonics9invariantEvENK3$_0clEjj"(ptr noundef nonnull align 8 dereferenceable(8) %0, i32 noundef %2, i32 noundef %4)
  ret i1 %call
}

; Function Attrs: mustprogress nounwind uwtable
define internal noundef nonnull align 8 dereferenceable(8) ptr @"_ZNKSt9_Any_data9_M_accessIZNK3nla7emonics9invariantEvE3$_0EERKT_v"(ptr noundef nonnull align 8 dereferenceable(16) %this) #4 align 2 {
entry:
  %this.addr = alloca ptr, align 8
  store ptr %this, ptr %this.addr, align 8
  %this1 = load ptr, ptr %this.addr, align 8
  %call = call noundef ptr @_ZNKSt9_Any_data9_M_accessEv(ptr noundef nonnull align 8 dereferenceable(16) %this1) #3
  ret ptr %call
}

; Function Attrs: mustprogress uwtable
define internal noundef zeroext i1 @"_ZSt10__invoke_rIbRZNK3nla7emonics9invariantEvE3$_0JjjEENSt9enable_ifIX16is_invocable_r_vIT_T0_DpT1_EES5_E4typeEOS6_DpOS7_"(ptr noundef nonnull align 8 dereferenceable(8) %__fn, ptr noundef nonnull align 4 dereferenceable(4) %__args, ptr noundef nonnull align 4 dereferenceable(4) %__args1) #5 {
entry:
  %__fn.addr = alloca ptr, align 8
  %__args.addr = alloca ptr, align 8
  %__args.addr2 = alloca ptr, align 8
  store ptr %__fn, ptr %__fn.addr, align 8
  store ptr %__args, ptr %__args.addr, align 8
  store ptr %__args1, ptr %__args.addr2, align 8
  %0 = load ptr, ptr %__fn.addr, align 8
  %1 = load ptr, ptr %__args.addr, align 8
  %2 = load ptr, ptr %__args.addr2, align 8
  %call = call noundef zeroext i1 @"_ZSt13__invoke_implIbRZNK3nla7emonics9invariantEvE3$_0JjjEET_St14__invoke_otherOT0_DpOT1_"(ptr noundef nonnull align 8 dereferenceable(8) %0, ptr noundef nonnull align 4 dereferenceable(4) %1, ptr noundef nonnull align 4 dereferenceable(4) %2)
  ret i1 %call
}

; Function Attrs: mustprogress nounwind uwtable
define internal noundef ptr @"_ZNSt14_Function_base13_Base_managerIZNK3nla7emonics9invariantEvE3$_0E14_M_get_pointerERKSt9_Any_data"(ptr noundef nonnull align 8 dereferenceable(16) %__source) #4 align 2 {
entry:
  %__source.addr = alloca ptr, align 8
  %__f = alloca ptr, align 8
  store ptr %__source, ptr %__source.addr, align 8
  %0 = load ptr, ptr %__source.addr, align 8
  %call = call noundef nonnull align 8 dereferenceable(8) ptr @"_ZNKSt9_Any_data9_M_accessIZNK3nla7emonics9invariantEvE3$_0EERKT_v"(ptr noundef nonnull align 8 dereferenceable(16) %0) #3
  store ptr %call, ptr %__f, align 8
  %1 = load ptr, ptr %__f, align 8
  ret ptr %1
}

; Function Attrs: mustprogress uwtable
define internal noundef zeroext i1 @"_ZNSt17_Function_handlerIFbjjEZNK3nla7emonics9invariantEvE3$_0E9_M_invokeERKSt9_Any_dataOjS8_"(ptr noundef nonnull align 8 dereferenceable(16) %__functor, ptr noundef nonnull align 4 dereferenceable(4) %__args, ptr noundef nonnull align 4 dereferenceable(4) %__args1) #5 align 2 {
entry:
  %__functor.addr = alloca ptr, align 8
  %__args.addr = alloca ptr, align 8
  %__args.addr2 = alloca ptr, align 8
  store ptr %__functor, ptr %__functor.addr, align 8
  store ptr %__args, ptr %__args.addr, align 8
  store ptr %__args1, ptr %__args.addr2, align 8
  %0 = load ptr, ptr %__functor.addr, align 8
  %call = call noundef ptr @"_ZNSt14_Function_base13_Base_managerIZNK3nla7emonics9invariantEvE3$_0E14_M_get_pointerERKSt9_Any_data"(ptr noundef nonnull align 8 dereferenceable(16) %0) #3
  %1 = load ptr, ptr %__args.addr, align 8
  %2 = load ptr, ptr %__args.addr2, align 8
  %call3 = call noundef zeroext i1 @"_ZSt10__invoke_rIbRZNK3nla7emonics9invariantEvE3$_0JjjEENSt9enable_ifIX16is_invocable_r_vIT_T0_DpT1_EES5_E4typeEOS6_DpOS7_"(ptr noundef nonnull align 8 dereferenceable(8) %call, ptr noundef nonnull align 4 dereferenceable(4) %1, ptr noundef nonnull align 4 dereferenceable(4) %2)
  ret i1 %call3
}