; Function Attrs: mustprogress nofree norecurse nosync nounwind willreturn memory(read, inaccessiblemem: none) uwtable
define internal noundef zeroext i1 @"_ZNSt17_Function_handlerIFbjjEZNK3nla7emonics9invariantEvE3$_0E9_M_invokeERKSt9_Any_dataOjS8_"(ptr nocapture noundef nonnull readonly align 8 dereferenceable(16) %__functor, ptr nocapture noundef nonnull readonly align 4 dereferenceable(4) %__args, ptr nocapture noundef nonnull readonly align 4 dereferenceable(4) %__args1) #7 align 2 {
entry:
  %call.val = load ptr, ptr %__functor, align 8
  %__args.val = load i32, ptr %__args, align 4
  %__args1.val = load i32, ptr %__args1, align 4
  %0 = getelementptr i8, ptr %call.val, i64 152
  %call.val.val = load ptr, ptr %0, align 8
  %idxprom.i.i.i.i = zext i32 %__args.val to i64
  %arrayidx.i.i.i.i = getelementptr inbounds %"struct.nla::emonics::head_tail", ptr %call.val.val, i64 %idxprom.i.i.i.i
  %1 = load ptr, ptr %arrayidx.i.i.i.i, align 8
  %tobool.not.i.i.i = icmp eq ptr %1, null
  br i1 %tobool.not.i.i.i, label %"_ZSt10__invoke_rIbRZNK3nla7emonics9invariantEvE3$_0JjjEENSt9enable_ifIX16is_invocable_r_vIT_T0_DpT1_EES5_E4typeEOS6_DpOS7_.exit", label %do.body.i.i.i

do.body.i.i.i:                                    ; preds = %entry, %do.body.i.i.i
  %c.0.i.i.i = phi ptr [ %3, %do.body.i.i.i ], [ %1, %entry ]
  %m_index.i.i.i = getelementptr inbounds i8, ptr %c.0.i.i.i, i64 8
  %2 = load i32, ptr %m_index.i.i.i, align 8
  %cmp.i.i.i = icmp eq i32 %2, %__args1.val
  %3 = load ptr, ptr %c.0.i.i.i, align 8
  %cmp5.i.i.i = icmp eq ptr %3, %1
  %.not.i.i.i = select i1 %cmp5.i.i.i, i1 true, i1 %cmp.i.i.i
  br i1 %.not.i.i.i, label %"_ZSt10__invoke_rIbRZNK3nla7emonics9invariantEvE3$_0JjjEENSt9enable_ifIX16is_invocable_r_vIT_T0_DpT1_EES5_E4typeEOS6_DpOS7_.exit", label %do.body.i.i.i, !llvm.loop !62

"_ZSt10__invoke_rIbRZNK3nla7emonics9invariantEvE3$_0JjjEENSt9enable_ifIX16is_invocable_r_vIT_T0_DpT1_EES5_E4typeEOS6_DpOS7_.exit": ; preds = %do.body.i.i.i, %entry
  %retval.0.i.i.i = phi i1 [ false, %entry ], [ %cmp.i.i.i, %do.body.i.i.i ]
  ret i1 %retval.0.i.i.i
}